target datalayout = "e-m:e-p270:32:32-p271:32:32-p272:64:64-i64:64-i128:128-f80:128-n8:16:32:64-S128"
target triple = "x86_64-pc-linux-gnu"

%struct.AVChannelLayout = type { i32, i32, %union.anon, ptr }
%union.anon = type { i64 }
%struct.AVFormatContext = type { ptr, ptr, ptr, ptr, ptr, i32, i32, ptr, i32, ptr, i32, ptr, ptr, i64, i64, i64, i32, i32, i32, i64, i64, ptr, i32, i32, ptr, i32, i32, i32, i32, ptr, i64, i32, i32, %struct.AVIOInterruptCB, i32, i32, i32, i32, i64, i32, i32, i32, i32, i32, i32, i32, i32, i32, i32, i32, i32, i64, i32, i32, i32, i32, i32, ptr, ptr, ptr, ptr, i32, ptr, ptr, ptr, ptr, i32, ptr, ptr, i64, ptr, ptr, ptr, i64 }
%struct.AVIOInterruptCB = type { ptr, ptr }
%struct.LAFContext = type { ptr, i32, i32, i32, i32, [4096 x %struct.StreamParams], i32, [512 x i8] }
%struct.StreamParams = type { %struct.AVChannelLayout, float, float, i32, i32 }

; Function Attrs: nounwind uwtable
define internal i32 @laf_read_seek(ptr noundef %0, i32 noundef %1, i64 noundef %2, i32 noundef %3) #0 {
  %5 = alloca ptr, align 8
  %6 = alloca i32, align 4
  %7 = alloca i64, align 8
  %8 = alloca i32, align 4
  %9 = alloca ptr, align 8
  store ptr %0, ptr %5, align 8, !tbaa !13
  store i32 %1, ptr %6, align 4, !tbaa !34
  store i64 %2, ptr %7, align 8, !tbaa !51
  store i32 %3, ptr %8, align 4, !tbaa !34
  call void @llvm.lifetime.start.p0(i64 8, ptr %9) #7
  %10 = load ptr, ptr %5, align 8, !tbaa !13
  %11 = getelementptr inbounds nuw %struct.AVFormatContext, ptr %10, i32 0, i32 3
  %12 = load ptr, ptr %11, align 8, !tbaa !15
  store ptr %12, ptr %9, align 8, !tbaa !30
  %13 = load ptr, ptr %9, align 8, !tbaa !30
  %14 = getelementptr inbounds nuw %struct.LAFContext, ptr %13, i32 0, i32 1
  store i32 0, ptr %14, align 8, !tbaa !82
  %15 = load ptr, ptr %9, align 8, !tbaa !30
  %16 = getelementptr inbounds nuw %struct.LAFContext, ptr %15, i32 0, i32 3
  store i32 0, ptr %16, align 8, !tbaa !52
  %17 = load ptr, ptr %9, align 8, !tbaa !30
  %18 = getelementptr inbounds nuw %struct.LAFContext, ptr %17, i32 0, i32 2
  store i32 0, ptr %18, align 4, !tbaa !54
  call void @llvm.lifetime.end.p0(i64 8, ptr %9) #7
  ret i32 -1
}