; Function Attrs: mustprogress nofree norecurse nosync nounwind willreturn memory(write, argmem: readwrite, inaccessiblemem: none) uwtable
define internal noundef i32 @laf_read_seek(ptr noundef readonly captures(none) %0, i32 %1, i64 %2, i32 %3) #2 {
  %5 = getelementptr inbounds nuw i8, ptr %0, i64 24
  %6 = load ptr, ptr %5, align 8, !tbaa !11
  %7 = getelementptr inbounds nuw i8, ptr %6, i64 8
  store i32 0, ptr %7, align 8, !tbaa !63
  %8 = getelementptr inbounds nuw i8, ptr %6, i64 16
  store i32 0, ptr %8, align 8, !tbaa !38
  %9 = getelementptr inbounds nuw i8, ptr %6, i64 12
  store i32 0, ptr %9, align 4, !tbaa !40
  ret i32 -1
}